target datalayout = "e-m:e-p270:32:32-p271:32:32-p272:64:64-i64:64-i128:128-f80:128-n8:16:32:64-S128"
target triple = "x86_64-pc-linux-gnu"

%struct.curl_trc_feat = type { ptr, i32 }
%struct.Curl_llist_node = type { ptr, ptr, ptr, ptr }
%struct.ip_quadruple = type { [46 x i8], [46 x i8], i32, i32 }
%struct.easy_pollset = type { [5 x i32], i32, [5 x i8] }
%struct.ssl_primary_config = type { ptr, ptr, ptr, ptr, ptr, ptr, ptr, ptr, ptr, ptr, ptr, ptr, i8, i32, i8, i8 }
%struct.curltime = type { i64, i32 }
%struct.Curl_llist = type { ptr, ptr, ptr, i64 }
%struct.dynbuf = type { ptr, i64, i64, i64 }
%struct.Curl_easy = type { i32, i64, i64, ptr, %struct.Curl_llist_node, %struct.Curl_llist_node, i32, i32, %struct.Curl_message, %struct.easy_pollset, %struct.Names, ptr, ptr, ptr, %struct.SingleRequest, %struct.UserDefined, ptr, ptr, %struct.Progress, %struct.UrlState, ptr, %struct.PureInfo, %struct.curl_tlssessioninfo }
%struct.Curl_message = type { %struct.Curl_llist_node, %struct.CURLMsg }
%struct.CURLMsg = type { i32, ptr, %union.anon }
%union.anon = type { ptr }
%struct.Names = type { ptr, i32 }
%struct.SingleRequest = type <{ i64, i64, i64, i64, %struct.curltime, i32, i32, i32, i32, i64, i32, i32, i32, i32, ptr, ptr, %struct.bufq, i64, i64, ptr, ptr, %union.anon.0, ptr, i8, i32, [3 x i8] }>
%struct.bufq = type { ptr, ptr, ptr, ptr, i64, i64, i64, i32 }
%union.anon.0 = type { ptr }
%struct.UserDefined = type <{ ptr, ptr, ptr, ptr, ptr, ptr, i16, [6 x i8], i64, i64, i64, ptr, ptr, i64, i16, i16, [4 x i8], ptr, ptr, ptr, ptr, ptr, ptr, ptr, ptr, ptr, ptr, ptr, ptr, ptr, ptr, ptr, ptr, ptr, ptr, ptr, ptr, ptr, ptr, ptr, i32, i32, i32, i32, i32, [4 x i8], i64, i64, i64, i64, i64, i64, i64, i64, ptr, ptr, %struct.curl_mimepart, ptr, ptr, i64, i8, i8, i8, [5 x i8], %struct.ssl_config_data, %struct.ssl_config_data, ptr, i16, i8, i8, [4 x i8], %struct.ssl_general_config, i32, i32, i32, [4 x i8], ptr, ptr, i8, [7 x i8], i64, i8, i8, i8, i8, i32, ptr, ptr, ptr, i8, i8, [2 x i8], i32, [63 x ptr], [8 x ptr], i32, i32, i32, [4 x i8], ptr, ptr, ptr, ptr, ptr, i8, [3 x i8], i32, i32, i32, i64, %struct.Curl_data_priority, ptr, ptr, i64, ptr, i64, ptr, ptr, ptr, i8, [3 x i8], i32, i8, i8, i64, [6 x i8] }>
%struct.curl_mimepart = type { ptr, ptr, i32, i32, ptr, ptr, ptr, ptr, ptr, ptr, ptr, ptr, ptr, ptr, ptr, i64, %struct.mime_state, ptr, %struct.mime_encoder_state, i64 }
%struct.mime_state = type { i32, ptr, i64 }
%struct.mime_encoder_state = type { i64, i64, i64, [256 x i8] }
%struct.ssl_config_data = type { %struct.ssl_primary_config, i64, ptr, ptr, ptr, ptr, ptr, ptr, ptr, i16 }
%struct.ssl_general_config = type { i64, i32 }
%struct.Curl_data_priority = type { ptr, ptr, i32, i8 }
%struct.Progress = type { i64, %struct.pgrs_dir, %struct.pgrs_dir, i64, i64, i32, i32, i64, i64, i64, i64, i64, i64, i64, i64, i64, %struct.curltime, %struct.curltime, %struct.curltime, %struct.curltime, [6 x i64], [6 x %struct.curltime], i32, i8 }
%struct.pgrs_dir = type { i64, i64, i64, %struct.pgrs_measure }
%struct.pgrs_measure = type { %struct.curltime, i64 }
%struct.UrlState = type { %struct.curltime, i64, i64, %struct.dynbuf, ptr, i64, ptr, i32, i32, i32, ptr, i64, i32, i64, i32, ptr, %struct.digestdata, %struct.digestdata, %struct.auth, %struct.auth, %struct.Curl_async, ptr, %struct.curltime, %struct.Curl_tree, %struct.Curl_llist, [15 x %struct.time_node], ptr, ptr, i64, i64, %struct.Curl_data_priority, ptr, ptr, ptr, %struct.urlpieces, ptr, ptr, ptr, ptr, ptr, i64, %struct.dynbuf, %struct.Curl_llist, [2 x %struct.curl_header], ptr, i32, ptr, ptr, %struct.store_netrc, %struct.dynamically_allocated_data, i8, i8, i8, i8, i32 }
%struct.digestdata = type { ptr, ptr, ptr, ptr, ptr, ptr, i32, i8, i8 }
%struct.auth = type { i64, i64, i64, i8 }
%struct.Curl_async = type { ptr, ptr, ptr, ptr, i32, i32, i8 }
%struct.Curl_tree = type { ptr, ptr, ptr, ptr, %struct.curltime, ptr }
%struct.time_node = type { %struct.Curl_llist_node, %struct.curltime, i32 }
%struct.urlpieces = type { ptr, ptr, ptr, ptr, ptr, ptr, ptr, ptr }
%struct.curl_header = type { ptr, ptr, i64, i64, i32, ptr }
%struct.store_netrc = type { %struct.dynbuf, ptr, i8 }
%struct.dynamically_allocated_data = type { ptr, ptr, ptr, ptr, ptr, ptr, ptr, ptr, ptr, ptr, ptr, ptr, ptr }
%struct.PureInfo = type { i32, i32, i32, i64, i64, i64, i64, i64, ptr, ptr, i64, i32, %struct.ip_quadruple, i32, ptr, i32, %struct.curl_certinfo, i32, i8 }
%struct.curl_certinfo = type { i32, ptr }
%struct.curl_tlssessioninfo = type { i32, ptr }

@.str.114 = private unnamed_addr constant [26 x i8] c"Couldn't set desired mode\00", align 1
@.str.115 = private unnamed_addr constant [52 x i8] c"Got a %03d response code instead of the assumed 200\00", align 1

; Function Attrs: nounwind uwtable
define internal i32 @ftp_state_retr_prequote(ptr noundef %0) #0 {
  %2 = alloca ptr, align 8
  store ptr %0, ptr %2, align 8, !tbaa !4
  %3 = load ptr, ptr %2, align 8, !tbaa !4
  %4 = call i32 @ftp_state_quote(ptr noundef %3, i1 noundef zeroext true, i8 noundef zeroext 13)
  ret i32 %4
}

; Function Attrs: nounwind uwtable
define internal i32 @ftp_state_type_resp(ptr noundef %0, i32 noundef %1, i8 noundef zeroext %2) #0 {
  %4 = alloca i32, align 4
  %5 = alloca ptr, align 8
  %6 = alloca i32, align 4
  %7 = alloca i8, align 1
  %8 = alloca i32, align 4
  %9 = alloca ptr, align 8
  %10 = alloca i32, align 4
  store ptr %0, ptr %5, align 8, !tbaa !4
  store i32 %1, ptr %6, align 4, !tbaa !11
  store i8 %2, ptr %7, align 1, !tbaa !30
  call void @llvm.lifetime.start.p0(i64 4, ptr %8) #9
  store i32 0, ptr %8, align 4, !tbaa !11
  call void @llvm.lifetime.start.p0(i64 8, ptr %9) #9
  %11 = load ptr, ptr %5, align 8, !tbaa !4
  %12 = getelementptr inbounds nuw %struct.Curl_easy, ptr %11, i32 0, i32 3
  %13 = load ptr, ptr %12, align 8, !tbaa !116
  store ptr %13, ptr %9, align 8, !tbaa !9
  %14 = load i32, ptr %6, align 4, !tbaa !11
  %15 = sdiv i32 %14, 100
  %16 = icmp ne i32 %15, 2
  br i1 %16, label %17, label %19

17:                                               ; preds = %3
  %18 = load ptr, ptr %5, align 8, !tbaa !4
  call void (ptr, ptr, ...) @Curl_failf(ptr noundef %18, ptr noundef @.str.114)
  store i32 17, ptr %4, align 4
  store i32 1, ptr %10, align 4
  br label %89

19:                                               ; preds = %3
  %20 = load i32, ptr %6, align 4, !tbaa !11
  %21 = icmp ne i32 %20, 200
  br i1 %21, label %22, label %55

22:                                               ; preds = %19
  br label %23

23:                                               ; preds = %22
  %24 = load ptr, ptr %5, align 8, !tbaa !4
  %25 = icmp ne ptr %24, null
  br i1 %25, label %26, label %52

26:                                               ; preds = %23
  %27 = load ptr, ptr %5, align 8, !tbaa !4
  %28 = getelementptr inbounds nuw %struct.Curl_easy, ptr %27, i32 0, i32 15
  %29 = getelementptr inbounds nuw %struct.UserDefined, ptr %28, i32 0, i32 124
  %30 = load i64, ptr %29, align 2
  %31 = lshr i64 %30, 27
  %32 = and i64 %31, 1
  %33 = trunc i64 %32 to i32
  %34 = icmp ne i32 %33, 0
  br i1 %34, label %35, label %52

35:                                               ; preds = %26
  %36 = load ptr, ptr %5, align 8, !tbaa !4
  %37 = getelementptr inbounds nuw %struct.Curl_easy, ptr %36, i32 0, i32 19
  %38 = getelementptr inbounds nuw %struct.UrlState, ptr %37, i32 0, i32 47
  %39 = load ptr, ptr %38, align 8, !tbaa !111
  %40 = icmp ne ptr %39, null
  br i1 %40, label %41, label %49

41:                                               ; preds = %35
  %42 = load ptr, ptr %5, align 8, !tbaa !4
  %43 = getelementptr inbounds nuw %struct.Curl_easy, ptr %42, i32 0, i32 19
  %44 = getelementptr inbounds nuw %struct.UrlState, ptr %43, i32 0, i32 47
  %45 = load ptr, ptr %44, align 8, !tbaa !111
  %46 = getelementptr inbounds nuw %struct.curl_trc_feat, ptr %45, i32 0, i32 1
  %47 = load i32, ptr %46, align 8, !tbaa !112
  %48 = icmp sge i32 %47, 1
  br i1 %48, label %49, label %52

49:                                               ; preds = %41, %35
  %50 = load ptr, ptr %5, align 8, !tbaa !4
  %51 = load i32, ptr %6, align 4, !tbaa !11
  call void (ptr, ptr, ...) @Curl_infof(ptr noundef %50, ptr noundef @.str.115, i32 noundef %51)
  br label %52

52:                                               ; preds = %49, %41, %26, %23
  br label %53

53:                                               ; preds = %52
  br label %54

54:                                               ; preds = %53
  br label %55

55:                                               ; preds = %54, %19
  %56 = load i8, ptr %7, align 1, !tbaa !30
  %57 = zext i8 %56 to i32
  %58 = icmp eq i32 %57, 19
  br i1 %58, label %59, label %63

59:                                               ; preds = %55
  %60 = load ptr, ptr %5, align 8, !tbaa !4
  %61 = load ptr, ptr %9, align 8, !tbaa !9
  %62 = call i32 @ftp_state_size(ptr noundef %60, ptr noundef %61)
  store i32 %62, ptr %8, align 4, !tbaa !11
  br label %87

63:                                               ; preds = %55
  %64 = load i8, ptr %7, align 1, !tbaa !30
  %65 = zext i8 %64 to i32
  %66 = icmp eq i32 %65, 20
  br i1 %66, label %67, label %70

67:                                               ; preds = %63
  %68 = load ptr, ptr %5, align 8, !tbaa !4
  %69 = call i32 @ftp_state_list(ptr noundef %68)
  store i32 %69, ptr %8, align 4, !tbaa !11
  br label %86

70:                                               ; preds = %63
  %71 = load i8, ptr %7, align 1, !tbaa !30
  %72 = zext i8 %71 to i32
  %73 = icmp eq i32 %72, 21
  br i1 %73, label %74, label %77

74:                                               ; preds = %70
  %75 = load ptr, ptr %5, align 8, !tbaa !4
  %76 = call i32 @ftp_state_retr_prequote(ptr noundef %75)
  store i32 %76, ptr %8, align 4, !tbaa !11
  br label %85

77:                                               ; preds = %70
  %78 = load i8, ptr %7, align 1, !tbaa !30
  %79 = zext i8 %78 to i32
  %80 = icmp eq i32 %79, 22
  br i1 %80, label %81, label %84

81:                                               ; preds = %77
  %82 = load ptr, ptr %5, align 8, !tbaa !4
  %83 = call i32 @ftp_state_stor_prequote(ptr noundef %82)
  store i32 %83, ptr %8, align 4, !tbaa !11
  br label %84

84:                                               ; preds = %81, %77
  br label %85

85:                                               ; preds = %84, %74
  br label %86

86:                                               ; preds = %85, %67
  br label %87

87:                                               ; preds = %86, %59
  %88 = load i32, ptr %8, align 4, !tbaa !11
  store i32 %88, ptr %4, align 4
  store i32 1, ptr %10, align 4
  br label %89

89:                                               ; preds = %87, %17
  call void @llvm.lifetime.end.p0(i64 8, ptr %9) #9
  call void @llvm.lifetime.end.p0(i64 4, ptr %8) #9
  %90 = load i32, ptr %4, align 4
  ret i32 %90
}